
Certificate:
    Data:
        Version: 3 (0x2)
        Serial Number:
            ab:92:1d:82:e1:b4:b1:be
        Signature Algorithm: sha1WithRSAEncryption
        Issuer: C=KR, ST=KYUNG-GI, L=SUNG-NAM, O=HUMAX Co., CN=humaxdigital.com/emailAddress=info@humaxdigital.com
        Validity
            Not Before: May 17 10:39:49 2010 GMT
            Not After : May 14 10:39:49 2020 GMT
        Subject: C=KR, ST=KYUNG-GI, L=SUNG-NAM, O=HUMAX Co., CN=humaxdigital.com/emailAddress=info@humaxdigital.com
        Subject Public Key Info:
            Public Key Algorithm: rsaEncryption
            RSA Public Key: (2048 bit)
                Modulus (2048 bit):
                    00:c9:76:be:86:79:fa:f6:96:5a:db:46:92:57:da:
                    27:c3:00:a3:95:0e:a7:95:97:39:af:4e:31:f2:f7:
                    b2:57:0e:5a:fe:62:52:63:d0:80:f2:60:a4:c8:b6:
                    71:aa:ad:27:3f:a4:4f:ac:c0:ca:a1:12:09:ce:f9:
                    93:0a:94:13:ea:0f:61:1b:cb:26:de:33:dc:e1:8f:
                    93:03:55:66:6c:0f:b2:24:ac:e6:10:65:5a:1e:f2:
                    f2:38:11:84:35:2e:e4:fa:d3:8e:8e:fb:4d:27:fe:
                    20:9e:38:a0:f8:1e:5c:d0:22:1e:21:9f:28:65:ee:
                    41:86:28:c8:16:ad:cd:a5:90:d4:4e:8b:13:5a:af:
                    88:75:8c:36:e6:5b:eb:f0:cb:07:00:a7:20:a9:14:
                    e2:9e:96:4a:27:db:48:ce:70:95:62:17:ec:e9:70:
                    46:c6:3b:3d:db:95:a3:e7:d5:c0:7b:1f:10:2e:b3:
                    8d:e3:c7:9d:0b:20:b0:9c:31:90:71:af:12:5a:da:
                    2a:f7:fb:bf:bd:1c:34:93:26:db:b2:46:0d:21:10:
                    9d:9b:d5:a3:82:4d:17:65:f6:5f:f1:7b:0f:83:f1:
                    f1:f2:b4:ab:f4:5a:8a:c9:3a:e8:6c:b3:f1:b2:16:
                    6f:7e:79:d0:7d:89:14:0d:ac:f6:9b:d6:11:5f:15:
                    6e:41
                Exponent: 65537 (0x10001)
        X509v3 extensions:
            X509v3 Basic Constraints:
                CA:TRUE
            X509v3 Subject Key Identifier:
                96:46:03:6A:93:8A:CF:E3:74:4B:6E:0F:7B:20:63:72:5A:26:7C:B7
            X509v3 Authority Key Identifier:
                keyid:96:46:03:6A:93:8A:CF:E3:74:4B:6E:0F:7B:20:63:72:5A:26:7C:B7
                DirName:/C=KR/ST=KYUNG-GI/L=SUNG-NAM/O=HUMAX Co./CN=humaxdigital.com/emailAddress=info@humaxdigital.com
                serial:AB:92:1D:82:E1:B4:B1:BE

    Signature Algorithm: sha1WithRSAEncryption
        24:c2:25:41:d6:f6:e9:0d:13:bb:34:b4:1e:35:20:39:72:40:
        5a:d6:af:7d:0b:ae:8b:d8:a9:d8:e7:4c:66:fc:fd:3a:c2:51:
        86:56:18:53:23:68:ca:ad:05:ce:a7:b4:72:45:68:1f:2f:71:
        5c:52:30:73:23:0b:c4:1b:ac:c6:19:5c:a5:11:c7:31:85:22:
        c4:72:41:0e:8c:7d:34:f4:e3:6e:58:88:cb:ba:62:1e:e1:ef:
        b2:c0:a9:1f:ff:6a:07:aa:f4:d8:72:73:64:70:1c:4f:25:24:
        5a:ac:6b:4f:3e:79:aa:ea:53:29:c3:06:39:c5:34:71:ef:05:
        d0:e6:89:d0:88:23:96:52:da:95:c3:a3:41:bb:cb:c3:32:43:
        ce:42:05:a4:e6:11:1b:ec:14:c1:8f:e4:49:fe:2c:33:7b:40:
        42:a4:74:4a:d1:0b:40:4f:bb:a2:86:f6:01:64:a8:3e:66:ce:
        c7:42:5c:9a:e1:0e:56:7d:bb:c5:76:86:76:b5:59:46:47:1b:
        47:ae:1d:dc:15:b6:61:43:70:84:9d:42:8c:ba:ad:59:df:b9:
        a9:c1:76:88:ff:40:95:10:55:ef:0c:a0:9c:42:05:25:e0:06:
        54:c2:fb:20:33:4a:e4:83:c4:a2:b1:7f:6f:a8:7b:86:4a:5c:
        92:1f:05:e3
-----BEGIN CERTIFICATE-----
MIIEhjCCA26gAwIBAgIJAKuSHYLhtLG+MA0GCSqGSIb3DQEBBQUAMIGIMQswCQYD
VQQGEwJLUjERMA8GA1UECBMIS1lVTkctR0kxETAPBgNVBAcTCFNVTkctTkFNMRIw
EAYDVQQKEwlIVU1BWCBDby4xGTAXBgNVBAMTEGh1bWF4ZGlnaXRhbC5jb20xJDAi
BgkqhkiG9w0BCQEWFWluZm9AaHVtYXhkaWdpdGFsLmNvbTAeFw0xMDA1MTcxMDM5
NDlaFw0yMDA1MTQxMDM5NDlaMIGIMQswCQYDVQQGEwJLUjERMA8GA1UECBMIS1lV
TkctR0kxETAPBgNVBAcTCFNVTkctTkFNMRIwEAYDVQQKEwlIVU1BWCBDby4xGTAX
BgNVBAMTEGh1bWF4ZGlnaXRhbC5jb20xJDAiBgkqhkiG9w0BCQEWFWluZm9AaHVt
YXhkaWdpdGFsLmNvbTCCASIwDQYJKoZIhvcNAQEBBQADggEPADCCAQoCggEBAMl2
voZ5+vaWWttGklfaJ8MAo5UOp5WXOa9OMfL3slcOWv5iUmPQgPJgpMi2caqtJz+k
T6zAyqESCc75kwqUE+oPYRvLJt4z3OGPkwNVZmwPsiSs5hBlWh7y8jgRhDUu5PrT
jo77TSf+IJ44oPgeXNAiHiGfKGXuQYYoyBatzaWQ1E6LE1qviHWMNuZb6/DLBwCn
IKkU4p6WSifbSM5wlWIX7OlwRsY7PduVo+fVwHsfEC6zjePHnQsgsJwxkHGvElra
Kvf7v70cNJMm27JGDSEQnZvVo4JNF2X2X/F7D4Px8fK0q/Raisk66Gyz8bIWb355
0H2JFA2s9pvWEV8VbkECAwEAAaOB8DCB7TAMBgNVHRMEBTADAQH/MB0GA1UdDgQW
BBSWRgNqk4rP43RLbg97IGNyWiZ8tzCBvQYDVR0jBIG1MIGygBSWRgNqk4rP43RL
bg97IGNyWiZ8t6GBjqSBizCBiDELMAkGA1UEBhMCS1IxETAPBgNVBAgTCEtZVU5H
LUdJMREwDwYDVQQHEwhTVU5HLU5BTTESMBAGA1UEChMJSFVNQVggQ28uMRkwFwYD
VQQDExBodW1heGRpZ2l0YWwuY29tMSQwIgYJKoZIhvcNAQkBFhVpbmZvQGh1bWF4
ZGlnaXRhbC5jb22CCQCrkh2C4bSxvjANBgkqhkiG9w0BAQUFAAOCAQEAJMIlQdb2
6Q0TuzS0HjUgOXJAWtavfQuui9ip2OdMZvz9OsJRhlYYUyNoyq0Fzqe0ckVoHy9x
XFIwcyMLxBusxhlcpRHHMYUixHJBDox9NPTjbliIy7piHuHvssCpH/9qB6r02HJz
ZHAcTyUkWqxrTz55qupTKcMGOcU0ce8F0OaJ0IgjllLalcOjQbvLwzJDzkIFpOYR
G+wUwY/kSf4sM3tAQqR0StELQE+7oob2AWSoPmbOx0JcmuEOVn27xXaGdrVZRkcb
R64d3BW2YUNwhJ1CjLqtWd+5qcF2iP9AlRBV7wygnEIFJeAGVML7IDNK5IPEorF/
b6h7hkpckh8F4w==
-----END CERTIFICATE-----



Certificate:
    Data:
        Version: 3 (0x2)
        Serial Number:
            84:42:6e:e5:a8:8e:8a:03
        Signature Algorithm: sha1WithRSAEncryption
        Issuer: C=DE, ST=Baden-Wuerttemberg, L=Karlsruhe, O=Videoweb, OU=Apache, CN=www.videoweb.de/emailAddress=admin@videoweb.de
        Validity
            Not Before: Jun  9 08:40:15 2010 GMT
            Not After : Mar 26 08:40:15 2028 GMT
        Subject: C=DE, ST=Baden-Wuerttemberg, L=Karlsruhe, O=Videoweb, OU=Apache, CN=www.videoweb.de/emailAddress=admin@videoweb.de
        Subject Public Key Info:
            Public Key Algorithm: rsaEncryption
            RSA Public Key: (2048 bit)
                Modulus (2048 bit):
                    00:f4:96:7e:e1:b3:07:14:66:38:f4:88:bc:c2:f9:
                    fa:ba:e1:1c:b9:11:59:28:d5:6a:67:07:d9:e6:7e:
                    f2:88:08:16:cd:e7:99:db:e8:06:49:0d:17:dd:9c:
                    83:38:42:5e:b8:43:33:c6:22:b8:ae:5a:7b:d4:7f:
                    d5:04:31:02:b7:22:85:09:71:86:71:4c:25:4f:73:
                    62:22:b4:2d:72:d9:a0:c2:f6:95:f6:e6:bd:9b:2b:
                    25:2a:c3:0d:6f:db:72:e5:2f:0f:cb:8e:63:44:fd:
                    82:8d:53:23:23:6e:68:74:bd:c9:0b:4f:13:24:08:
                    d9:b3:6e:33:bd:f0:3f:4d:25:a6:f9:13:f6:03:e8:
                    53:8c:e7:16:c6:92:b4:94:a4:37:a4:3f:b0:98:32:
                    aa:8c:04:59:c2:29:6c:c2:50:9b:8c:70:86:96:52:
                    38:64:84:8f:67:1c:cf:6c:03:a9:61:8c:42:35:21:
                    0e:b8:8b:16:6c:fd:49:23:69:c2:7b:1f:fd:56:c1:
                    62:db:92:05:e3:02:34:aa:48:95:f0:0d:91:c0:45:
                    03:6d:e7:b5:ce:32:82:a1:b9:84:66:31:d8:08:3e:
                    76:82:1e:be:6b:79:ab:1e:b4:d5:ce:9d:e1:41:a4:
                    e0:b6:50:10:b6:c3:d0:0e:ce:87:e7:bd:9a:66:6f:
                    b1:f1
                Exponent: 65537 (0x10001)
        X509v3 extensions:
            X509v3 Subject Key Identifier:
                CB:68:2C:74:33:2C:AB:C2:D3:9D:ED:AF:59:BB:57:84:FF:60:81:B1
            X509v3 Authority Key Identifier:
                keyid:CB:68:2C:74:33:2C:AB:C2:D3:9D:ED:AF:59:BB:57:84:FF:60:81:B1
                DirName:/C=DE/ST=Baden-Wuerttemberg/L=Karlsruhe/O=Videoweb/OU=Apache/CN=www.videoweb.de/emailAddress=admin@videoweb.de
                serial:84:42:6E:E5:A8:8E:8A:03

            X509v3 Basic Constraints:
                CA:TRUE
    Signature Algorithm: sha1WithRSAEncryption
        4d:2b:e3:c3:e4:bf:35:d1:68:1e:c0:68:c9:62:c0:c5:d9:b3:
        4c:2f:33:be:b7:b4:94:57:03:3f:d9:64:1e:76:94:ec:17:e2:
        07:6b:3a:bb:61:6d:16:ad:ef:93:65:2d:13:dd:ae:8f:a9:ed:
        4c:74:60:58:73:4d:dd:f2:f7:0d:28:73:9c:6a:12:1b:ac:36:
        c9:22:dd:dc:44:c9:28:3b:29:b3:da:d8:91:d0:90:d8:34:af:
        86:25:22:b1:9c:3c:63:18:4a:31:37:3e:55:a9:c1:a4:0e:38:
        fe:be:33:15:4b:9e:75:c2:fe:fc:5a:4d:c4:01:b8:3a:85:08:
        cc:d5:94:95:76:8b:3b:a0:dd:fb:a9:37:e6:38:86:55:8d:d5:
        43:28:d6:3f:69:a4:d0:57:43:cf:14:89:1e:a8:78:1d:45:ba:
        82:18:43:63:5f:a2:4b:78:d4:55:99:b2:fc:c2:77:35:55:59:
        24:56:5c:a3:98:69:a3:9d:97:43:40:4d:6f:70:00:30:b9:9f:
        88:88:a9:66:f8:0b:99:fa:c1:16:cb:d6:b9:0d:e0:6b:7f:b0:
        e8:a6:29:53:2d:6b:cf:c0:6b:44:1d:14:3b:0b:b2:dd:5a:7a:
        9b:09:7b:0b:73:2b:7e:5f:ba:a8:98:e3:a5:01:7a:2e:fa:10:
        a8:9e:ea:64
-----BEGIN CERTIFICATE-----
MIIEyjCCA7KgAwIBAgIJAIRCbuWojooDMA0GCSqGSIb3DQEBBQUAMIGeMQswCQYD
VQQGEwJERTEbMBkGA1UECBMSQmFkZW4tV3VlcnR0ZW1iZXJnMRIwEAYDVQQHEwlL
YXJsc3J1aGUxETAPBgNVBAoTCFZpZGVvd2ViMQ8wDQYDVQQLEwZBcGFjaGUxGDAW
BgNVBAMTD3d3dy52aWRlb3dlYi5kZTEgMB4GCSqGSIb3DQEJARYRYWRtaW5Admlk
ZW93ZWIuZGUwHhcNMTAwNjA5MDg0MDE1WhcNMjgwMzI2MDg0MDE1WjCBnjELMAkG
A1UEBhMCREUxGzAZBgNVBAgTEkJhZGVuLVd1ZXJ0dGVtYmVyZzESMBAGA1UEBxMJ
S2FybHNydWhlMREwDwYDVQQKEwhWaWRlb3dlYjEPMA0GA1UECxMGQXBhY2hlMRgw
FgYDVQQDEw93d3cudmlkZW93ZWIuZGUxIDAeBgkqhkiG9w0BCQEWEWFkbWluQHZp
ZGVvd2ViLmRlMIIBIjANBgkqhkiG9w0BAQEFAAOCAQ8AMIIBCgKCAQEA9JZ+4bMH
FGY49Ii8wvn6uuEcuRFZKNVqZwfZ5n7yiAgWzeeZ2+gGSQ0X3ZyDOEJeuEMzxiK4
rlp71H/VBDECtyKFCXGGcUwlT3NiIrQtctmgwvaV9ua9myslKsMNb9ty5S8Py45j
RP2CjVMjI25odL3JC08TJAjZs24zvfA/TSWm+RP2A+hTjOcWxpK0lKQ3pD+wmDKq
jARZwilswlCbjHCGllI4ZISPZxzPbAOpYYxCNSEOuIsWbP1JI2nCex/9VsFi25IF
4wI0qkiV8A2RwEUDbee1zjKCobmEZjHYCD52gh6+a3mrHrTVzp3hQaTgtlAQtsPQ
Ds6H572aZm+x8QIDAQABo4IBBzCCAQMwHQYDVR0OBBYEFMtoLHQzLKvC053tr1m7
V4T/YIGxMIHTBgNVHSMEgcswgciAFMtoLHQzLKvC053tr1m7V4T/YIGxoYGkpIGh
MIGeMQswCQYDVQQGEwJERTEbMBkGA1UECBMSQmFkZW4tV3VlcnR0ZW1iZXJnMRIw
EAYDVQQHEwlLYXJsc3J1aGUxETAPBgNVBAoTCFZpZGVvd2ViMQ8wDQYDVQQLEwZB
cGFjaGUxGDAWBgNVBAMTD3d3dy52aWRlb3dlYi5kZTEgMB4GCSqGSIb3DQEJARYR
YWRtaW5AdmlkZW93ZWIuZGWCCQCEQm7lqI6KAzAMBgNVHRMEBTADAQH/MA0GCSqG
SIb3DQEBBQUAA4IBAQBNK+PD5L810WgewGjJYsDF2bNMLzO+t7SUVwM/2WQedpTs
F+IHazq7YW0Wre+TZS0T3a6Pqe1MdGBYc03d8vcNKHOcahIbrDbJIt3cRMkoOymz
2tiR0JDYNK+GJSKxnDxjGEoxNz5VqcGkDjj+vjMVS551wv78Wk3EAbg6hQjM1ZSV
dos7oN37qTfmOIZVjdVDKNY/aaTQV0PPFIkeqHgdRbqCGENjX6JLeNRVmbL8wnc1
VVkkVlyjmGmjnZdDQE1vcAAwuZ+IiKlm+AuZ+sEWy9a5DeBrf7DopilTLWvPwGtE
HRQ7C7LdWnqbCXsLcyt+X7qomOOlAXou+hConupk
-----END CERTIFICATE-----



Certificate:
    Data:
        Version: 3 (0x2)
        Serial Number:
            f0:e7:9a:c5:67:28:54:8d
        Signature Algorithm: sha1WithRSAEncryption
        Issuer: C=LU, ST=Duchscherstrooss, L=Wecker, O=Inverto Digital Labs , OU=Certificate Authority, CN=ca.inverto.tv/emailAddress=info@inverto.tv
        Validity
            Not Before: Nov 22 13:20:55 2010 GMT
            Not After : Nov 19 13:20:55 2020 GMT
        Subject: C=LU, ST=Duchscherstrooss, L=Wecker, O=Inverto Digital Labs , OU=Certificate Authority, CN=ca.inverto.tv/emailAddress=info@inverto.tv
        Subject Public Key Info:
            Public Key Algorithm: rsaEncryption
            RSA Public Key: (2048 bit)
                Modulus (2048 bit):
                    00:91:1d:72:ab:52:ba:f6:89:3e:cb:1f:29:43:84:
                    6a:ad:49:cf:69:21:19:30:fa:42:aa:8d:54:dd:63:
                    ea:bd:37:e0:5a:70:d0:eb:f1:62:07:a8:8b:1b:f9:
                    a9:58:3f:90:0f:62:d1:4f:c7:af:d6:44:56:6c:78:
                    7a:e4:cb:00:b3:ae:8d:ea:05:24:a4:ac:95:b8:0f:
                    7c:5b:be:a5:2e:1f:29:a8:12:5a:86:61:52:6e:87:
                    68:67:41:25:99:3e:19:ef:98:a0:ef:13:8d:40:81:
                    7b:b8:4a:b7:87:cd:48:14:1d:0f:a2:51:a2:79:5f:
                    44:5e:24:7d:df:10:08:c3:74:2b:16:fc:33:de:78:
                    0b:bc:70:9f:9d:80:70:2b:9b:b8:5f:e8:32:77:fa:
                    68:84:36:42:28:6b:b2:d9:fd:d6:6b:06:3e:b6:db:
                    47:a6:61:89:bc:d4:0f:b4:56:fc:27:5e:26:0e:56:
                    f7:93:14:43:f4:02:62:6f:a0:04:99:32:ce:d0:74:
                    f4:3e:b7:cc:75:a0:63:5d:66:26:3c:07:27:55:49:
                    56:ec:24:3c:9b:b8:1d:f7:2f:8e:73:dd:02:fe:bc:
                    e2:76:67:4b:f0:58:49:19:14:02:55:ab:7a:b7:81:
                    17:b0:51:f6:17:c9:b8:4e:c8:1c:33:a1:1b:74:23:
                    f8:99
                Exponent: 65537 (0x10001)
        X509v3 extensions:
            X509v3 Subject Key Identifier:
                A8:FD:36:A7:BA:00:9E:DB:14:C7:61:01:B7:03:3B:38:92:61:3D:95
            X509v3 Authority Key Identifier:
                keyid:A8:FD:36:A7:BA:00:9E:DB:14:C7:61:01:B7:03:3B:38:92:61:3D:95
                DirName:/C=LU/ST=Duchscherstrooss/L=Wecker/O=Inverto Digital Labs /OU=Certificate Authority/CN=ca.inverto.tv/emailAddress=info@inverto.tv
                serial:F0:E7:9A:C5:67:28:54:8D

            X509v3 Basic Constraints:
                CA:TRUE
    Signature Algorithm: sha1WithRSAEncryption
        21:cd:cd:aa:9a:37:93:58:2b:82:2f:92:9a:ed:43:2a:a7:12:
        8d:2b:e0:93:7c:fe:38:4c:42:ec:d3:24:62:53:8e:24:3d:f4:
        97:f7:e5:8a:e2:da:f9:7e:a5:42:8e:9e:e5:70:c2:27:90:3b:
        70:b6:81:eb:ac:86:2f:ec:bf:d9:6f:c7:4c:46:0a:80:e4:36:
        9f:95:dd:72:ce:f0:8b:e9:07:76:59:7d:78:9c:2e:77:e4:f3:
        60:41:4b:aa:cc:3c:53:43:1a:e9:47:6f:fb:19:3e:77:e4:2b:
        e4:40:0b:c8:87:f9:b3:56:2b:24:91:e0:cf:fb:3d:a2:e6:c5:
        e5:e7:1f:8b:da:0d:7f:02:23:e4:6a:28:28:f4:a8:4f:ad:4f:
        23:4b:ec:88:53:c9:ed:e8:93:00:08:59:3e:a7:3e:28:4d:68:
        20:70:94:73:c2:e2:c6:69:25:2d:ee:fd:ed:10:99:67:62:7b:
        ec:1f:2e:8f:6e:a9:16:73:b5:1e:22:41:88:77:da:eb:fe:dc:
        3d:2c:f8:14:79:aa:5d:52:2c:ac:c1:94:a5:18:00:d3:0a:6b:
        72:76:d7:a1:56:d4:e2:5a:2b:dd:f9:3e:ab:cd:06:27:3b:24:
        f7:9c:ee:a1:31:0f:59:13:85:d4:67:13:f3:ea:96:d3:50:04:
        f5:78:65:b4
-----BEGIN CERTIFICATE-----
MIIFAzCCA+ugAwIBAgIJAPDnmsVnKFSNMA0GCSqGSIb3DQEBBQUAMIGxMQswCQYD
VQQGEwJMVTEZMBcGA1UECBMQRHVjaHNjaGVyc3Ryb29zczEPMA0GA1UEBxMGV2Vj
a2VyMR4wHAYDVQQKExVJbnZlcnRvIERpZ2l0YWwgTGFicyAxHjAcBgNVBAsTFUNl
cnRpZmljYXRlIEF1dGhvcml0eTEWMBQGA1UEAxMNY2EuaW52ZXJ0by50djEeMBwG
CSqGSIb3DQEJARYPaW5mb0BpbnZlcnRvLnR2MB4XDTEwMTEyMjEzMjA1NVoXDTIw
MTExOTEzMjA1NVowgbExCzAJBgNVBAYTAkxVMRkwFwYDVQQIExBEdWNoc2NoZXJz
dHJvb3NzMQ8wDQYDVQQHEwZXZWNrZXIxHjAcBgNVBAoTFUludmVydG8gRGlnaXRh
bCBMYWJzIDEeMBwGA1UECxMVQ2VydGlmaWNhdGUgQXV0aG9yaXR5MRYwFAYDVQQD
Ew1jYS5pbnZlcnRvLnR2MR4wHAYJKoZIhvcNAQkBFg9pbmZvQGludmVydG8udHYw
ggEiMA0GCSqGSIb3DQEBAQUAA4IBDwAwggEKAoIBAQCRHXKrUrr2iT7LHylDhGqt
Sc9pIRkw+kKqjVTdY+q9N+BacNDr8WIHqIsb+alYP5APYtFPx6/WRFZseHrkywCz
ro3qBSSkrJW4D3xbvqUuHymoElqGYVJuh2hnQSWZPhnvmKDvE41AgXu4SreHzUgU
HQ+iUaJ5X0ReJH3fEAjDdCsW/DPeeAu8cJ+dgHArm7hf6DJ3+miENkIoa7LZ/dZr
Bj6220emYYm81A+0VvwnXiYOVveTFEP0AmJvoASZMs7QdPQ+t8x1oGNdZiY8BydV
SVbsJDybuB33L45z3QL+vOJ2Z0vwWEkZFAJVq3q3gRewUfYXybhOyBwzoRt0I/iZ
AgMBAAGjggEaMIIBFjAdBgNVHQ4EFgQUqP02p7oAntsUx2EBtwM7OJJhPZUwgeYG
A1UdIwSB3jCB24AUqP02p7oAntsUx2EBtwM7OJJhPZWhgbekgbQwgbExCzAJBgNV
BAYTAkxVMRkwFwYDVQQIExBEdWNoc2NoZXJzdHJvb3NzMQ8wDQYDVQQHEwZXZWNr
ZXIxHjAcBgNVBAoTFUludmVydG8gRGlnaXRhbCBMYWJzIDEeMBwGA1UECxMVQ2Vy
dGlmaWNhdGUgQXV0aG9yaXR5MRYwFAYDVQQDEw1jYS5pbnZlcnRvLnR2MR4wHAYJ
KoZIhvcNAQkBFg9pbmZvQGludmVydG8udHaCCQDw55rFZyhUjTAMBgNVHRMEBTAD
AQH/MA0GCSqGSIb3DQEBBQUAA4IBAQAhzc2qmjeTWCuCL5Ka7UMqpxKNK+CTfP44
TELs0yRiU44kPfSX9+WK4tr5fqVCjp7lcMInkDtwtoHrrIYv7L/Zb8dMRgqA5Daf
ld1yzvCL6Qd2WX14nC535PNgQUuqzDxTQxrpR2/7GT535CvkQAvIh/mzViskkeDP
+z2i5sXl5x+L2g1/AiPkaigo9KhPrU8jS+yIU8nt6JMACFk+pz4oTWggcJRzwuLG
aSUt7v3tEJlnYnvsHy6PbqkWc7UeIkGId9rr/tw9LPgUeapdUiyswZSlGADTCmty
dtehVtTiWivd+T6rzQYnOyT3nO6hMQ9ZE4XUZxPz6pbTUAT1eGW0
-----END CERTIFICATE-----



Certificate:
    Data:
        Version: 3 (0x2)
        Serial Number:
            9d:8a:cf:04:80:6d:5e:8e
        Signature Algorithm: sha1WithRSAEncryption
        Issuer: C=DE, ST=Bavaria, O=MIT-xperts GmbH, OU=HBBTV-DEMO-CA, CN=itv.mit-xperts.com/emailAddress=info@mit-xperts.com
        Validity
            Not Before: Sep 12 10:55:06 2009 GMT
            Not After : Sep 11 10:55:06 2012 GMT
        Subject: C=DE, ST=Bavaria, O=MIT-xperts GmbH, OU=HBBTV-DEMO-CA, CN=itv.mit-xperts.com/emailAddress=info@mit-xperts.com
        Subject Public Key Info:
            Public Key Algorithm: rsaEncryption
            RSA Public Key: (1024 bit)
                Modulus (1024 bit):
                    00:ba:3c:18:dc:4e:87:1a:c5:e3:2b:30:0f:b6:32:
                    32:0c:19:6f:27:e4:1e:01:28:39:e7:c4:06:70:87:
                    36:2b:c1:97:85:d9:60:c4:e6:ba:e5:a0:c4:8c:17:
                    0f:2f:6e:57:da:21:35:1c:3a:f5:15:d0:7e:45:d4:
                    26:16:f4:e0:25:94:00:42:94:a8:2c:32:ac:14:7f:
                    8c:0a:b6:bb:8e:a3:41:fc:aa:02:94:8f:68:e7:d2:
                    67:fb:4d:e1:8f:68:2e:76:a7:c0:86:86:3b:65:12:
                    60:58:b9:ec:d3:e9:43:8e:0a:4f:f6:32:e6:cc:3b:
                    b3:22:18:5d:cd:7e:e2:e5:27
                Exponent: 65537 (0x10001)
        X509v3 extensions:
            X509v3 Subject Key Identifier:
                6D:FB:80:12:A2:17:B2:D9:8B:16:99:86:17:B7:C4:B3:CD:5C:A2:02
            X509v3 Authority Key Identifier:
                keyid:6D:FB:80:12:A2:17:B2:D9:8B:16:99:86:17:B7:C4:B3:CD:5C:A2:02
                DirName:/C=DE/ST=Bavaria/O=MIT-xperts GmbH/OU=HBBTV-DEMO-CA/CN=itv.mit-xperts.com/emailAddress=info@mit-xperts.com
                serial:9D:8A:CF:04:80:6D:5E:8E

            X509v3 Basic Constraints:
                CA:TRUE
    Signature Algorithm: sha1WithRSAEncryption
        46:bf:72:e6:bd:b8:4f:17:df:9b:43:81:05:19:a8:37:54:6d:
        0c:3b:51:ac:60:06:9f:c7:ab:aa:be:1a:cb:b1:40:da:34:47:
        9c:e5:24:bc:38:f6:2a:46:57:ee:48:dc:32:ce:59:e6:24:3d:
        de:de:df:0d:27:af:07:1d:c9:c8:0c:b6:87:f2:c3:0b:38:2b:
        7a:a5:79:ed:60:bf:cd:60:63:f1:f7:04:b4:42:0d:6e:44:61:
        13:92:75:12:16:2d:b5:a8:21:77:71:f6:fe:1a:e0:29:fb:8c:
        ec:59:1a:3a:15:cc:7d:18:8d:78:db:47:c5:5f:a5:18:c1:11:
        fc:57
-----BEGIN CERTIFICATE-----
MIIDnzCCAwigAwIBAgIJAJ2KzwSAbV6OMA0GCSqGSIb3DQEBBQUAMIGSMQswCQYD
VQQGEwJERTEQMA4GA1UECBMHQmF2YXJpYTEYMBYGA1UEChMPTUlULXhwZXJ0cyBH
bWJIMRYwFAYDVQQLEw1IQkJUVi1ERU1PLUNBMRswGQYDVQQDExJpdHYubWl0LXhw
ZXJ0cy5jb20xIjAgBgkqhkiG9w0BCQEWE2luZm9AbWl0LXhwZXJ0cy5jb20wHhcN
MDkwOTEyMTA1NTA2WhcNMTIwOTExMTA1NTA2WjCBkjELMAkGA1UEBhMCREUxEDAO
BgNVBAgTB0JhdmFyaWExGDAWBgNVBAoTD01JVC14cGVydHMgR21iSDEWMBQGA1UE
CxMNSEJCVFYtREVNTy1DQTEbMBkGA1UEAxMSaXR2Lm1pdC14cGVydHMuY29tMSIw
IAYJKoZIhvcNAQkBFhNpbmZvQG1pdC14cGVydHMuY29tMIGfMA0GCSqGSIb3DQEB
AQUAA4GNADCBiQKBgQC6PBjcTocaxeMrMA+2MjIMGW8n5B4BKDnnxAZwhzYrwZeF
2WDE5rrloMSMFw8vblfaITUcOvUV0H5F1CYW9OAllABClKgsMqwUf4wKtruOo0H8
qgKUj2jn0mf7TeGPaC52p8CGhjtlEmBYuezT6UOOCk/2MubMO7MiGF3NfuLlJwID
AQABo4H6MIH3MB0GA1UdDgQWBBRt+4ASohey2YsWmYYXt8SzzVyiAjCBxwYDVR0j
BIG/MIG8gBRt+4ASohey2YsWmYYXt8SzzVyiAqGBmKSBlTCBkjELMAkGA1UEBhMC
REUxEDAOBgNVBAgTB0JhdmFyaWExGDAWBgNVBAoTD01JVC14cGVydHMgR21iSDEW
MBQGA1UECxMNSEJCVFYtREVNTy1DQTEbMBkGA1UEAxMSaXR2Lm1pdC14cGVydHMu
Y29tMSIwIAYJKoZIhvcNAQkBFhNpbmZvQG1pdC14cGVydHMuY29tggkAnYrPBIBt
Xo4wDAYDVR0TBAUwAwEB/zANBgkqhkiG9w0BAQUFAAOBgQBGv3LmvbhPF9+bQ4EF
Gag3VG0MO1GsYAafx6uqvhrLsUDaNEec5SS8OPYqRlfuSNwyzlnmJD3e3t8NJ68H
HcnIDLaH8sMLOCt6pXntYL/NYGPx9wS0Qg1uRGETknUSFi21qCF3cfb+GuAp+4zs
WRo6Fcx9GI1420fFX6UYwRH8Vw==
-----END CERTIFICATE-----

